; Function Attrs: mustprogress uwtable
define void @ucnv_getStarters_77(ptr noundef %0, ptr noundef %1, ptr noundef %2) local_unnamed_addr #0 {
  %4 = icmp eq ptr %2, null
  br i1 %4, label %17, label %5

5:                                                ; preds = %3
  %6 = load i32, ptr %2, align 4, !tbaa !3
  %7 = icmp slt i32 %6, 1
  br i1 %7, label %8, label %17

8:                                                ; preds = %5
  %9 = getelementptr inbounds nuw i8, ptr %0, i64 48
  %10 = load ptr, ptr %9, align 8, !tbaa !8
  %11 = getelementptr inbounds nuw i8, ptr %10, i64 32
  %12 = load ptr, ptr %11, align 8, !tbaa !15
  %13 = getelementptr inbounds nuw i8, ptr %12, i64 88
  %14 = load ptr, ptr %13, align 8, !tbaa !110
  %.not9 = icmp eq ptr %14, null
  br i1 %.not9, label %16, label %15

15:                                               ; preds = %8
  tail call void %14(ptr noundef nonnull %0, ptr noundef %1, ptr noundef nonnull %2)
  br label %17

16:                                               ; preds = %8
  store i32 1, ptr %2, align 4, !tbaa !3
  br label %17

17:                                               ; preds = %3, %5, %16, %15
  ret void
}